target datalayout = "e-m:e-p270:32:32-p271:32:32-p272:64:64-i64:64-i128:128-f80:128-n8:16:32:64-S128"
target triple = "x86_64-pc-linux-gnu"

@nDist = internal global i32 0, align 4
@nCubes = internal global i32 0, align 4
@LastGroup = internal global i32 0, align 4
@CubeNum = internal global i32 0, align 4
@ELCubes = internal global [32 x ptr] zeroinitializer, align 16
@GroupOrder = internal global [24 x i32] zeroinitializer, align 16

; Function Attrs: nounwind uwtable
define i32 @ExorLinkCubeIteratorPick(ptr noundef %0, i32 noundef %1) #0 {
  %3 = alloca ptr, align 8
  %4 = alloca i32, align 4
  %5 = alloca i32, align 4
  %6 = alloca i32, align 4
  store ptr %0, ptr %3, align 8, !tbaa !3
  store i32 %1, ptr %4, align 4, !tbaa !10
  call void @llvm.lifetime.start.p0(i64 4, ptr %5) #4
  call void @llvm.lifetime.start.p0(i64 4, ptr %6) #4
  %7 = load i32, ptr %4, align 4, !tbaa !10
  %8 = sext i32 %7 to i64
  %9 = getelementptr inbounds [24 x i32], ptr @GroupOrder, i64 0, i64 %8
  %10 = load i32, ptr %9, align 4, !tbaa !10
  store i32 %10, ptr %5, align 4, !tbaa !10
  store i32 0, ptr @LastGroup, align 4, !tbaa !10
  store i32 0, ptr %6, align 4, !tbaa !10
  br label %11

11:                                               ; preds = %40, %2
  %12 = load i32, ptr %6, align 4, !tbaa !10
  %13 = load i32, ptr @nCubes, align 4, !tbaa !10
  %14 = icmp slt i32 %12, %13
  br i1 %14, label %15, label %43

15:                                               ; preds = %11
  %16 = load i32, ptr @nDist, align 4, !tbaa !10
  %17 = sext i32 %16 to i64
  %18 = getelementptr inbounds [3 x [24 x [4 x i32]]], ptr @s_ELGroupRules, i64 0, i64 %17
  %19 = load i32, ptr %5, align 4, !tbaa !10
  %20 = sext i32 %19 to i64
  %21 = getelementptr inbounds [24 x [4 x i32]], ptr %18, i64 0, i64 %20
  %22 = load i32, ptr %6, align 4, !tbaa !10
  %23 = sext i32 %22 to i64
  %24 = getelementptr inbounds [4 x i32], ptr %21, i64 0, i64 %23
  %25 = load i32, ptr %24, align 4, !tbaa !10
  store i32 %25, ptr @CubeNum, align 4, !tbaa !10
  %26 = load i32, ptr @CubeNum, align 4, !tbaa !10
  %27 = sext i32 %26 to i64
  %28 = getelementptr inbounds [32 x i32], ptr @s_BitMasks, i64 0, i64 %27
  %29 = load i32, ptr %28, align 4, !tbaa !10
  %30 = load i32, ptr @LastGroup, align 4, !tbaa !10
  %31 = or i32 %30, %29
  store i32 %31, ptr @LastGroup, align 4, !tbaa !10
  %32 = load i32, ptr @CubeNum, align 4, !tbaa !10
  %33 = sext i32 %32 to i64
  %34 = getelementptr inbounds [32 x ptr], ptr @ELCubes, i64 0, i64 %33
  %35 = load ptr, ptr %34, align 8, !tbaa !8
  %36 = load ptr, ptr %3, align 8, !tbaa !3
  %37 = load i32, ptr %6, align 4, !tbaa !10
  %38 = sext i32 %37 to i64
  %39 = getelementptr inbounds ptr, ptr %36, i64 %38
  store ptr %35, ptr %39, align 8, !tbaa !8
  br label %40

40:                                               ; preds = %15
  %41 = load i32, ptr %6, align 4, !tbaa !10
  %42 = add nsw i32 %41, 1
  store i32 %42, ptr %6, align 4, !tbaa !10
  br label %11, !llvm.loop !53

43:                                               ; preds = %11
  call void @llvm.lifetime.end.p0(i64 4, ptr %6) #4
  call void @llvm.lifetime.end.p0(i64 4, ptr %5) #4
  ret i32 1
}