; Function Attrs: nofree norecurse nosync nounwind memory(readwrite, argmem: write, inaccessiblemem: none) uwtable
define noundef i32 @ExorLinkCubeIteratorPick(ptr noundef writeonly captures(none) %0, i32 noundef %1) local_unnamed_addr #2 {
  %3 = sext i32 %1 to i64
  %4 = getelementptr inbounds [24 x i32], ptr @GroupOrder, i64 0, i64 %3
  %5 = load i32, ptr %4, align 4, !tbaa !3
  store i32 0, ptr @LastGroup, align 4, !tbaa !3
  %6 = load i32, ptr @nCubes, align 4, !tbaa !3
  %7 = icmp sgt i32 %6, 0
  br i1 %7, label %.lr.ph, label %22

.lr.ph:                                           ; preds = %2
  %8 = load i32, ptr @nDist, align 4, !tbaa !3
  %9 = sext i32 %8 to i64
  %10 = sext i32 %5 to i64
  %wide.trip.count = zext nneg i32 %6 to i64
  br label %11

11:                                               ; preds = %.lr.ph, %11
  %indvars.iv = phi i64 [ 0, %.lr.ph ], [ %indvars.iv.next, %11 ]
  %12 = phi i32 [ 0, %.lr.ph ], [ %18, %11 ]
  %13 = getelementptr inbounds [3 x [24 x [4 x i32]]], ptr @s_ELGroupRules, i64 0, i64 %9, i64 %10, i64 %indvars.iv
  %14 = load i32, ptr %13, align 4, !tbaa !3
  %15 = sext i32 %14 to i64
  %16 = getelementptr inbounds [32 x i32], ptr @s_BitMasks, i64 0, i64 %15
  %17 = load i32, ptr %16, align 4, !tbaa !3
  %18 = or i32 %12, %17
  %19 = getelementptr inbounds [32 x ptr], ptr @ELCubes, i64 0, i64 %15
  %20 = load ptr, ptr %19, align 8, !tbaa !7
  %21 = getelementptr inbounds nuw ptr, ptr %0, i64 %indvars.iv
  store ptr %20, ptr %21, align 8, !tbaa !7
  %indvars.iv.next = add nuw nsw i64 %indvars.iv, 1
  %exitcond.not = icmp eq i64 %indvars.iv.next, %wide.trip.count
  br i1 %exitcond.not, label %._crit_edge, label %11, !llvm.loop !48

._crit_edge:                                      ; preds = %11
  store i32 %14, ptr @CubeNum, align 4, !tbaa !3
  store i32 %18, ptr @LastGroup, align 4, !tbaa !3
  br label %22

22:                                               ; preds = %._crit_edge, %2
  ret i32 1
}